target datalayout = "e-m:e-p270:32:32-p271:32:32-p272:64:64-i64:64-i128:128-f80:128-n8:16:32:64-S128"
target triple = "x86_64-pc-linux-gnu"

%struct.jpeg_compress_struct = type { ptr, ptr, ptr, ptr, i32, i32, ptr, i32, i32, i32, i32, double, i32, i32, i32, ptr, [4 x ptr], [4 x ptr], [4 x ptr], [16 x i8], [16 x i8], [16 x i8], i32, ptr, i32, i32, i32, i32, i32, i32, i32, i32, i32, i8, i8, i8, i16, i16, i32, i32, i32, i32, i32, i32, i32, [4 x ptr], i32, i32, i32, [10 x i32], i32, i32, i32, i32, ptr, ptr, ptr, ptr, ptr, ptr, ptr, ptr, ptr, ptr, i32 }
%struct.my_fdct_controller = type { %struct.jpeg_forward_dct, ptr, [4 x ptr], ptr, [4 x ptr] }
%struct.jpeg_forward_dct = type { ptr, ptr }
%struct.jpeg_component_info = type { i32, i32, i32, i32, i32, i32, i32, i32, i32, i32, i32, i32, i32, i32, i32, i32, i32, i32, i32, ptr, ptr }

; Function Attrs: nounwind uwtable
define internal void @forward_DCT(ptr noundef %0, ptr noundef %1, ptr noundef %2, ptr noundef %3, i32 noundef %4, i32 noundef %5, i32 noundef %6) #0 {
  %8 = alloca ptr, align 8
  %9 = alloca ptr, align 8
  %10 = alloca ptr, align 8
  %11 = alloca ptr, align 8
  %12 = alloca i32, align 4
  %13 = alloca i32, align 4
  %14 = alloca i32, align 4
  %15 = alloca ptr, align 8
  %16 = alloca ptr, align 8
  %17 = alloca ptr, align 8
  %18 = alloca [64 x i32], align 16
  %19 = alloca i32, align 4
  %20 = alloca ptr, align 8
  %21 = alloca ptr, align 8
  %22 = alloca i32, align 4
  %23 = alloca i32, align 4
  %24 = alloca i32, align 4
  %25 = alloca i32, align 4
  %26 = alloca ptr, align 8
  store ptr %0, ptr %8, align 8
  store ptr %1, ptr %9, align 8
  store ptr %2, ptr %10, align 8
  store ptr %3, ptr %11, align 8
  store i32 %4, ptr %12, align 4
  store i32 %5, ptr %13, align 4
  store i32 %6, ptr %14, align 4
  %27 = load ptr, ptr %8, align 8
  %28 = getelementptr inbounds %struct.jpeg_compress_struct, ptr %27, i32 0, i32 61
  %29 = load ptr, ptr %28, align 8
  store ptr %29, ptr %15, align 8
  %30 = load ptr, ptr %15, align 8
  %31 = getelementptr inbounds %struct.my_fdct_controller, ptr %30, i32 0, i32 1
  %32 = load ptr, ptr %31, align 8
  store ptr %32, ptr %16, align 8
  %33 = load ptr, ptr %15, align 8
  %34 = getelementptr inbounds %struct.my_fdct_controller, ptr %33, i32 0, i32 2
  %35 = load ptr, ptr %9, align 8
  %36 = getelementptr inbounds %struct.jpeg_component_info, ptr %35, i32 0, i32 4
  %37 = load i32, ptr %36, align 8
  %38 = sext i32 %37 to i64
  %39 = getelementptr inbounds [4 x ptr], ptr %34, i64 0, i64 %38
  %40 = load ptr, ptr %39, align 8
  store ptr %40, ptr %17, align 8
  %41 = load i32, ptr %12, align 4
  %42 = load ptr, ptr %10, align 8
  %43 = zext i32 %41 to i64
  %44 = getelementptr inbounds ptr, ptr %42, i64 %43
  store ptr %44, ptr %10, align 8
  store i32 0, ptr %19, align 4
  br label %45

45:                                               ; preds = %188, %7
  %46 = load i32, ptr %19, align 4
  %47 = load i32, ptr %14, align 4
  %48 = icmp ult i32 %46, %47
  br i1 %48, label %49, label %193

49:                                               ; preds = %45
  %50 = getelementptr inbounds [64 x i32], ptr %18, i64 0, i64 0
  store ptr %50, ptr %20, align 8
  store i32 0, ptr %22, align 4
  br label %51

51:                                               ; preds = %119, %49
  %52 = load i32, ptr %22, align 4
  %53 = icmp slt i32 %52, 8
  br i1 %53, label %54, label %122

54:                                               ; preds = %51
  %55 = load ptr, ptr %10, align 8
  %56 = load i32, ptr %22, align 4
  %57 = sext i32 %56 to i64
  %58 = getelementptr inbounds ptr, ptr %55, i64 %57
  %59 = load ptr, ptr %58, align 8
  %60 = load i32, ptr %13, align 4
  %61 = zext i32 %60 to i64
  %62 = getelementptr inbounds i8, ptr %59, i64 %61
  store ptr %62, ptr %21, align 8
  %63 = load ptr, ptr %21, align 8
  %64 = getelementptr inbounds i8, ptr %63, i32 1
  store ptr %64, ptr %21, align 8
  %65 = load i8, ptr %63, align 1
  %66 = zext i8 %65 to i32
  %67 = sub nsw i32 %66, 128
  %68 = load ptr, ptr %20, align 8
  %69 = getelementptr inbounds i32, ptr %68, i32 1
  store ptr %69, ptr %20, align 8
  store i32 %67, ptr %68, align 4
  %70 = load ptr, ptr %21, align 8
  %71 = getelementptr inbounds i8, ptr %70, i32 1
  store ptr %71, ptr %21, align 8
  %72 = load i8, ptr %70, align 1
  %73 = zext i8 %72 to i32
  %74 = sub nsw i32 %73, 128
  %75 = load ptr, ptr %20, align 8
  %76 = getelementptr inbounds i32, ptr %75, i32 1
  store ptr %76, ptr %20, align 8
  store i32 %74, ptr %75, align 4
  %77 = load ptr, ptr %21, align 8
  %78 = getelementptr inbounds i8, ptr %77, i32 1
  store ptr %78, ptr %21, align 8
  %79 = load i8, ptr %77, align 1
  %80 = zext i8 %79 to i32
  %81 = sub nsw i32 %80, 128
  %82 = load ptr, ptr %20, align 8
  %83 = getelementptr inbounds i32, ptr %82, i32 1
  store ptr %83, ptr %20, align 8
  store i32 %81, ptr %82, align 4
  %84 = load ptr, ptr %21, align 8
  %85 = getelementptr inbounds i8, ptr %84, i32 1
  store ptr %85, ptr %21, align 8
  %86 = load i8, ptr %84, align 1
  %87 = zext i8 %86 to i32
  %88 = sub nsw i32 %87, 128
  %89 = load ptr, ptr %20, align 8
  %90 = getelementptr inbounds i32, ptr %89, i32 1
  store ptr %90, ptr %20, align 8
  store i32 %88, ptr %89, align 4
  %91 = load ptr, ptr %21, align 8
  %92 = getelementptr inbounds i8, ptr %91, i32 1
  store ptr %92, ptr %21, align 8
  %93 = load i8, ptr %91, align 1
  %94 = zext i8 %93 to i32
  %95 = sub nsw i32 %94, 128
  %96 = load ptr, ptr %20, align 8
  %97 = getelementptr inbounds i32, ptr %96, i32 1
  store ptr %97, ptr %20, align 8
  store i32 %95, ptr %96, align 4
  %98 = load ptr, ptr %21, align 8
  %99 = getelementptr inbounds i8, ptr %98, i32 1
  store ptr %99, ptr %21, align 8
  %100 = load i8, ptr %98, align 1
  %101 = zext i8 %100 to i32
  %102 = sub nsw i32 %101, 128
  %103 = load ptr, ptr %20, align 8
  %104 = getelementptr inbounds i32, ptr %103, i32 1
  store ptr %104, ptr %20, align 8
  store i32 %102, ptr %103, align 4
  %105 = load ptr, ptr %21, align 8
  %106 = getelementptr inbounds i8, ptr %105, i32 1
  store ptr %106, ptr %21, align 8
  %107 = load i8, ptr %105, align 1
  %108 = zext i8 %107 to i32
  %109 = sub nsw i32 %108, 128
  %110 = load ptr, ptr %20, align 8
  %111 = getelementptr inbounds i32, ptr %110, i32 1
  store ptr %111, ptr %20, align 8
  store i32 %109, ptr %110, align 4
  %112 = load ptr, ptr %21, align 8
  %113 = getelementptr inbounds i8, ptr %112, i32 1
  store ptr %113, ptr %21, align 8
  %114 = load i8, ptr %112, align 1
  %115 = zext i8 %114 to i32
  %116 = sub nsw i32 %115, 128
  %117 = load ptr, ptr %20, align 8
  %118 = getelementptr inbounds i32, ptr %117, i32 1
  store ptr %118, ptr %20, align 8
  store i32 %116, ptr %117, align 4
  br label %119

119:                                              ; preds = %54
  %120 = load i32, ptr %22, align 4
  %121 = add nsw i32 %120, 1
  store i32 %121, ptr %22, align 4
  br label %51, !llvm.loop !13

122:                                              ; preds = %51
  %123 = load ptr, ptr %16, align 8
  %124 = getelementptr inbounds [64 x i32], ptr %18, i64 0, i64 0
  call void %123(ptr noundef %124)
  %125 = load ptr, ptr %11, align 8
  %126 = load i32, ptr %19, align 4
  %127 = zext i32 %126 to i64
  %128 = getelementptr inbounds [64 x i16], ptr %125, i64 %127
  %129 = getelementptr inbounds [64 x i16], ptr %128, i64 0, i64 0
  store ptr %129, ptr %26, align 8
  store i32 0, ptr %25, align 4
  br label %130

130:                                              ; preds = %184, %122
  %131 = load i32, ptr %25, align 4
  %132 = icmp slt i32 %131, 64
  br i1 %132, label %133, label %187

133:                                              ; preds = %130
  %134 = load ptr, ptr %17, align 8
  %135 = load i32, ptr %25, align 4
  %136 = sext i32 %135 to i64
  %137 = getelementptr inbounds i32, ptr %134, i64 %136
  %138 = load i32, ptr %137, align 4
  store i32 %138, ptr %24, align 4
  %139 = load i32, ptr %25, align 4
  %140 = sext i32 %139 to i64
  %141 = getelementptr inbounds [64 x i32], ptr %18, i64 0, i64 %140
  %142 = load i32, ptr %141, align 4
  store i32 %142, ptr %23, align 4
  %143 = load i32, ptr %23, align 4
  %144 = icmp slt i32 %143, 0
  br i1 %144, label %145, label %163

145:                                              ; preds = %133
  %146 = load i32, ptr %23, align 4
  %147 = sub nsw i32 0, %146
  store i32 %147, ptr %23, align 4
  %148 = load i32, ptr %24, align 4
  %149 = ashr i32 %148, 1
  %150 = load i32, ptr %23, align 4
  %151 = add nsw i32 %150, %149
  store i32 %151, ptr %23, align 4
  %152 = load i32, ptr %23, align 4
  %153 = load i32, ptr %24, align 4
  %154 = icmp sge i32 %152, %153
  br i1 %154, label %155, label %159

155:                                              ; preds = %145
  %156 = load i32, ptr %24, align 4
  %157 = load i32, ptr %23, align 4
  %158 = sdiv i32 %157, %156
  store i32 %158, ptr %23, align 4
  br label %160

159:                                              ; preds = %145
  store i32 0, ptr %23, align 4
  br label %160

160:                                              ; preds = %159, %155
  %161 = load i32, ptr %23, align 4
  %162 = sub nsw i32 0, %161
  store i32 %162, ptr %23, align 4
  br label %177

163:                                              ; preds = %133
  %164 = load i32, ptr %24, align 4
  %165 = ashr i32 %164, 1
  %166 = load i32, ptr %23, align 4
  %167 = add nsw i32 %166, %165
  store i32 %167, ptr %23, align 4
  %168 = load i32, ptr %23, align 4
  %169 = load i32, ptr %24, align 4
  %170 = icmp sge i32 %168, %169
  br i1 %170, label %171, label %175

171:                                              ; preds = %163
  %172 = load i32, ptr %24, align 4
  %173 = load i32, ptr %23, align 4
  %174 = sdiv i32 %173, %172
  store i32 %174, ptr %23, align 4
  br label %176

175:                                              ; preds = %163
  store i32 0, ptr %23, align 4
  br label %176

176:                                              ; preds = %175, %171
  br label %177

177:                                              ; preds = %176, %160
  %178 = load i32, ptr %23, align 4
  %179 = trunc i32 %178 to i16
  %180 = load ptr, ptr %26, align 8
  %181 = load i32, ptr %25, align 4
  %182 = sext i32 %181 to i64
  %183 = getelementptr inbounds i16, ptr %180, i64 %182
  store i16 %179, ptr %183, align 2
  br label %184

184:                                              ; preds = %177
  %185 = load i32, ptr %25, align 4
  %186 = add nsw i32 %185, 1
  store i32 %186, ptr %25, align 4
  br label %130, !llvm.loop !14

187:                                              ; preds = %130
  br label %188

188:                                              ; preds = %187
  %189 = load i32, ptr %19, align 4
  %190 = add i32 %189, 1
  store i32 %190, ptr %19, align 4
  %191 = load i32, ptr %13, align 4
  %192 = add i32 %191, 8
  store i32 %192, ptr %13, align 4
  br label %45, !llvm.loop !15

193:                                              ; preds = %45
  ret void
}