; Function Attrs: nounwind uwtable
define internal void @forward_DCT(ptr nocapture noundef readonly %0, ptr nocapture noundef readonly %1, ptr nocapture noundef readonly %2, ptr nocapture noundef writeonly %3, i32 noundef %4, i32 noundef %5, i32 noundef %6) #0 {
  %8 = alloca [64 x i32], align 16
  %9 = getelementptr inbounds i8, ptr %0, i64 488
  %10 = load ptr, ptr %9, align 8
  %11 = getelementptr inbounds i8, ptr %10, i64 16
  %12 = load ptr, ptr %11, align 8
  %13 = getelementptr inbounds i8, ptr %10, i64 24
  %14 = getelementptr inbounds i8, ptr %1, i64 16
  %15 = load i32, ptr %14, align 8
  %16 = sext i32 %15 to i64
  %17 = getelementptr inbounds [4 x ptr], ptr %13, i64 0, i64 %16
  %18 = load ptr, ptr %17, align 8
  %19 = zext i32 %4 to i64
  %20 = getelementptr inbounds ptr, ptr %2, i64 %19
  %.not73 = icmp eq i32 %6, 0
  br i1 %.not73, label %._crit_edge, label %.preheader.preheader

.preheader.preheader:                             ; preds = %7
  %wide.trip.count = zext i32 %6 to i64
  br label %.preheader

.preheader:                                       ; preds = %.preheader.preheader, %87
  %indvars.iv79 = phi i64 [ 0, %.preheader.preheader ], [ %indvars.iv.next80, %87 ]
  %.05672 = phi i32 [ %5, %.preheader.preheader ], [ %88, %87 ]
  %21 = zext i32 %.05672 to i64
  br label %22

22:                                               ; preds = %.preheader, %22
  %indvars.iv = phi i64 [ 0, %.preheader ], [ %indvars.iv.next, %22 ]
  %.06068 = phi ptr [ %8, %.preheader ], [ %64, %22 ]
  %23 = getelementptr inbounds ptr, ptr %20, i64 %indvars.iv
  %24 = load ptr, ptr %23, align 8
  %25 = getelementptr inbounds i8, ptr %24, i64 %21
  %26 = getelementptr inbounds i8, ptr %25, i64 1
  %27 = load i8, ptr %25, align 1
  %28 = zext i8 %27 to i32
  %29 = add nsw i32 %28, -128
  %30 = getelementptr inbounds i8, ptr %.06068, i64 4
  store i32 %29, ptr %.06068, align 4
  %31 = getelementptr inbounds i8, ptr %25, i64 2
  %32 = load i8, ptr %26, align 1
  %33 = zext i8 %32 to i32
  %34 = add nsw i32 %33, -128
  %35 = getelementptr inbounds i8, ptr %.06068, i64 8
  store i32 %34, ptr %30, align 4
  %36 = getelementptr inbounds i8, ptr %25, i64 3
  %37 = load i8, ptr %31, align 1
  %38 = zext i8 %37 to i32
  %39 = add nsw i32 %38, -128
  %40 = getelementptr inbounds i8, ptr %.06068, i64 12
  store i32 %39, ptr %35, align 4
  %41 = getelementptr inbounds i8, ptr %25, i64 4
  %42 = load i8, ptr %36, align 1
  %43 = zext i8 %42 to i32
  %44 = add nsw i32 %43, -128
  %45 = getelementptr inbounds i8, ptr %.06068, i64 16
  store i32 %44, ptr %40, align 4
  %46 = getelementptr inbounds i8, ptr %25, i64 5
  %47 = load i8, ptr %41, align 1
  %48 = zext i8 %47 to i32
  %49 = add nsw i32 %48, -128
  %50 = getelementptr inbounds i8, ptr %.06068, i64 20
  store i32 %49, ptr %45, align 4
  %51 = getelementptr inbounds i8, ptr %25, i64 6
  %52 = load i8, ptr %46, align 1
  %53 = zext i8 %52 to i32
  %54 = add nsw i32 %53, -128
  %55 = getelementptr inbounds i8, ptr %.06068, i64 24
  store i32 %54, ptr %50, align 4
  %56 = getelementptr inbounds i8, ptr %25, i64 7
  %57 = load i8, ptr %51, align 1
  %58 = zext i8 %57 to i32
  %59 = add nsw i32 %58, -128
  %60 = getelementptr inbounds i8, ptr %.06068, i64 28
  store i32 %59, ptr %55, align 4
  %61 = load i8, ptr %56, align 1
  %62 = zext i8 %61 to i32
  %63 = add nsw i32 %62, -128
  %64 = getelementptr inbounds i8, ptr %.06068, i64 32
  store i32 %63, ptr %60, align 4
  %indvars.iv.next = add nuw nsw i64 %indvars.iv, 1
  %exitcond.not = icmp eq i64 %indvars.iv.next, 8
  br i1 %exitcond.not, label %65, label %22, !llvm.loop !12

65:                                               ; preds = %22
  call void %12(ptr noundef nonnull %8) #3
  %66 = getelementptr inbounds [64 x i16], ptr %3, i64 %indvars.iv79
  br label %67

67:                                               ; preds = %65, %84
  %indvars.iv75 = phi i64 [ 0, %65 ], [ %indvars.iv.next76, %84 ]
  %68 = getelementptr inbounds i32, ptr %18, i64 %indvars.iv75
  %69 = load i32, ptr %68, align 4
  %70 = getelementptr inbounds [64 x i32], ptr %8, i64 0, i64 %indvars.iv75
  %71 = load i32, ptr %70, align 4
  %72 = icmp slt i32 %71, 0
  %73 = ashr i32 %69, 1
  br i1 %72, label %74, label %80

74:                                               ; preds = %67
  %75 = sub i32 %73, %71
  %.not67 = icmp slt i32 %75, %69
  br i1 %.not67, label %78, label %76

76:                                               ; preds = %74
  %77 = sdiv i32 %75, %69
  br label %78

78:                                               ; preds = %74, %76
  %.057 = phi i32 [ %77, %76 ], [ 0, %74 ]
  %79 = sub nsw i32 0, %.057
  br label %84

80:                                               ; preds = %67
  %81 = add nsw i32 %71, %73
  %.not = icmp slt i32 %81, %69
  br i1 %.not, label %84, label %82

82:                                               ; preds = %80
  %83 = sdiv i32 %81, %69
  br label %84

84:                                               ; preds = %80, %82, %78
  %.1 = phi i32 [ %79, %78 ], [ %83, %82 ], [ 0, %80 ]
  %85 = trunc i32 %.1 to i16
  %86 = getelementptr inbounds i16, ptr %66, i64 %indvars.iv75
  store i16 %85, ptr %86, align 2
  %indvars.iv.next76 = add nuw nsw i64 %indvars.iv75, 1
  %exitcond78.not = icmp eq i64 %indvars.iv.next76, 64
  br i1 %exitcond78.not, label %87, label %67, !llvm.loop !13

87:                                               ; preds = %84
  %indvars.iv.next80 = add nuw nsw i64 %indvars.iv79, 1
  %88 = add i32 %.05672, 8
  %exitcond82.not = icmp eq i64 %indvars.iv.next80, %wide.trip.count
  br i1 %exitcond82.not, label %._crit_edge, label %.preheader, !llvm.loop !14

._crit_edge:                                      ; preds = %87, %7
  ret void
}